; ModuleID = 'source-C-CXX/24/185.c'
source_filename = "source-C-CXX/24/185.c"
target datalayout = "e-m:e-p270:32:32-p271:32:32-p272:64:64-i64:64-f80:128-n8:16:32:64-S128"
target triple = "x86_64-pc-linux-gnu"

@.str = private unnamed_addr constant [3 x i8] c"%d\00", align 1

; Function Attrs: nofree nounwind sspstrong uwtable
define dso_local i32 @main() local_unnamed_addr #0 {
  %1 = alloca i32, align 4
  %2 = alloca [100 x i32], align 16
  %3 = bitcast [100 x i32]* %2 to i8*
  %4 = bitcast i32* %1 to i8*
  call void @llvm.lifetime.start.p0i8(i64 4, i8* nonnull %4) #4
  call void @llvm.lifetime.start.p0i8(i64 400, i8* nonnull %3) #4
  %5 = call i32 (i8*, ...) @__isoc99_scanf(i8* getelementptr inbounds ([3 x i8], [3 x i8]* @.str, i64 0, i64 0), i32* nonnull %1)
  call void @llvm.memset.p0i8.i64(i8* noundef nonnull align 16 dereferenceable(396) %3, i8 0, i64 396, i1 false)
  %6 = getelementptr inbounds [100 x i32], [100 x i32]* %2, i64 0, i64 99
  store i32 1, i32* %6, align 4, !tbaa !5
  %7 = load i32, i32* %1, align 4, !tbaa !5
  %8 = icmp slt i32 %7, 1
  br i1 %8, label %155, label %9

9:                                                ; preds = %0
  %10 = bitcast [100 x i32]* %2 to <4 x i32>*
  %11 = bitcast [100 x i32]* %2 to <4 x i32>*
  %12 = getelementptr inbounds [100 x i32], [100 x i32]* %2, i64 0, i64 4
  %13 = bitcast i32* %12 to <4 x i32>*
  %14 = bitcast i32* %12 to <4 x i32>*
  %15 = getelementptr inbounds [100 x i32], [100 x i32]* %2, i64 0, i64 8
  %16 = bitcast i32* %15 to <4 x i32>*
  %17 = bitcast i32* %15 to <4 x i32>*
  %18 = getelementptr inbounds [100 x i32], [100 x i32]* %2, i64 0, i64 12
  %19 = bitcast i32* %18 to <4 x i32>*
  %20 = bitcast i32* %18 to <4 x i32>*
  %21 = getelementptr inbounds [100 x i32], [100 x i32]* %2, i64 0, i64 16
  %22 = bitcast i32* %21 to <4 x i32>*
  %23 = bitcast i32* %21 to <4 x i32>*
  %24 = getelementptr inbounds [100 x i32], [100 x i32]* %2, i64 0, i64 20
  %25 = bitcast i32* %24 to <4 x i32>*
  %26 = bitcast i32* %24 to <4 x i32>*
  %27 = getelementptr inbounds [100 x i32], [100 x i32]* %2, i64 0, i64 24
  %28 = bitcast i32* %27 to <4 x i32>*
  %29 = bitcast i32* %27 to <4 x i32>*
  %30 = getelementptr inbounds [100 x i32], [100 x i32]* %2, i64 0, i64 28
  %31 = bitcast i32* %30 to <4 x i32>*
  %32 = bitcast i32* %30 to <4 x i32>*
  %33 = getelementptr inbounds [100 x i32], [100 x i32]* %2, i64 0, i64 32
  %34 = bitcast i32* %33 to <4 x i32>*
  %35 = bitcast i32* %33 to <4 x i32>*
  %36 = getelementptr inbounds [100 x i32], [100 x i32]* %2, i64 0, i64 36
  %37 = bitcast i32* %36 to <4 x i32>*
  %38 = bitcast i32* %36 to <4 x i32>*
  %39 = getelementptr inbounds [100 x i32], [100 x i32]* %2, i64 0, i64 40
  %40 = bitcast i32* %39 to <4 x i32>*
  %41 = bitcast i32* %39 to <4 x i32>*
  %42 = getelementptr inbounds [100 x i32], [100 x i32]* %2, i64 0, i64 44
  %43 = bitcast i32* %42 to <4 x i32>*
  %44 = bitcast i32* %42 to <4 x i32>*
  %45 = getelementptr inbounds [100 x i32], [100 x i32]* %2, i64 0, i64 48
  %46 = bitcast i32* %45 to <4 x i32>*
  %47 = bitcast i32* %45 to <4 x i32>*
  %48 = getelementptr inbounds [100 x i32], [100 x i32]* %2, i64 0, i64 52
  %49 = bitcast i32* %48 to <4 x i32>*
  %50 = bitcast i32* %48 to <4 x i32>*
  %51 = getelementptr inbounds [100 x i32], [100 x i32]* %2, i64 0, i64 56
  %52 = bitcast i32* %51 to <4 x i32>*
  %53 = bitcast i32* %51 to <4 x i32>*
  %54 = getelementptr inbounds [100 x i32], [100 x i32]* %2, i64 0, i64 60
  %55 = bitcast i32* %54 to <4 x i32>*
  %56 = bitcast i32* %54 to <4 x i32>*
  %57 = getelementptr inbounds [100 x i32], [100 x i32]* %2, i64 0, i64 64
  %58 = bitcast i32* %57 to <4 x i32>*
  %59 = bitcast i32* %57 to <4 x i32>*
  %60 = getelementptr inbounds [100 x i32], [100 x i32]* %2, i64 0, i64 68
  %61 = bitcast i32* %60 to <4 x i32>*
  %62 = bitcast i32* %60 to <4 x i32>*
  %63 = getelementptr inbounds [100 x i32], [100 x i32]* %2, i64 0, i64 72
  %64 = bitcast i32* %63 to <4 x i32>*
  %65 = bitcast i32* %63 to <4 x i32>*
  %66 = getelementptr inbounds [100 x i32], [100 x i32]* %2, i64 0, i64 76
  %67 = bitcast i32* %66 to <4 x i32>*
  %68 = bitcast i32* %66 to <4 x i32>*
  %69 = getelementptr inbounds [100 x i32], [100 x i32]* %2, i64 0, i64 80
  %70 = bitcast i32* %69 to <4 x i32>*
  %71 = bitcast i32* %69 to <4 x i32>*
  %72 = getelementptr inbounds [100 x i32], [100 x i32]* %2, i64 0, i64 84
  %73 = bitcast i32* %72 to <4 x i32>*
  %74 = bitcast i32* %72 to <4 x i32>*
  %75 = getelementptr inbounds [100 x i32], [100 x i32]* %2, i64 0, i64 88
  %76 = bitcast i32* %75 to <4 x i32>*
  %77 = bitcast i32* %75 to <4 x i32>*
  %78 = getelementptr inbounds [100 x i32], [100 x i32]* %2, i64 0, i64 92
  %79 = bitcast i32* %78 to <4 x i32>*
  %80 = bitcast i32* %78 to <4 x i32>*
  %81 = getelementptr inbounds [100 x i32], [100 x i32]* %2, i64 0, i64 96
  %82 = bitcast i32* %81 to <4 x i32>*
  %83 = bitcast i32* %81 to <4 x i32>*
  br label %84

84:                                               ; preds = %9, %152
  %85 = phi i32 [ %153, %152 ], [ 1, %9 ]
  %86 = load <4 x i32>, <4 x i32>* %10, align 16, !tbaa !5
  %87 = shl nsw <4 x i32> %86, <i32 1, i32 1, i32 1, i32 1>
  store <4 x i32> %87, <4 x i32>* %11, align 16, !tbaa !5
  %88 = load <4 x i32>, <4 x i32>* %13, align 16, !tbaa !5
  %89 = shl nsw <4 x i32> %88, <i32 1, i32 1, i32 1, i32 1>
  store <4 x i32> %89, <4 x i32>* %14, align 16, !tbaa !5
  %90 = load <4 x i32>, <4 x i32>* %16, align 16, !tbaa !5
  %91 = shl nsw <4 x i32> %90, <i32 1, i32 1, i32 1, i32 1>
  store <4 x i32> %91, <4 x i32>* %17, align 16, !tbaa !5
  %92 = load <4 x i32>, <4 x i32>* %19, align 16, !tbaa !5
  %93 = shl nsw <4 x i32> %92, <i32 1, i32 1, i32 1, i32 1>
  store <4 x i32> %93, <4 x i32>* %20, align 16, !tbaa !5
  %94 = load <4 x i32>, <4 x i32>* %22, align 16, !tbaa !5
  %95 = shl nsw <4 x i32> %94, <i32 1, i32 1, i32 1, i32 1>
  store <4 x i32> %95, <4 x i32>* %23, align 16, !tbaa !5
  %96 = load <4 x i32>, <4 x i32>* %25, align 16, !tbaa !5
  %97 = shl nsw <4 x i32> %96, <i32 1, i32 1, i32 1, i32 1>
  store <4 x i32> %97, <4 x i32>* %26, align 16, !tbaa !5
  %98 = load <4 x i32>, <4 x i32>* %28, align 16, !tbaa !5
  %99 = shl nsw <4 x i32> %98, <i32 1, i32 1, i32 1, i32 1>
  store <4 x i32> %99, <4 x i32>* %29, align 16, !tbaa !5
  %100 = load <4 x i32>, <4 x i32>* %31, align 16, !tbaa !5
  %101 = shl nsw <4 x i32> %100, <i32 1, i32 1, i32 1, i32 1>
  store <4 x i32> %101, <4 x i32>* %32, align 16, !tbaa !5
  %102 = load <4 x i32>, <4 x i32>* %34, align 16, !tbaa !5
  %103 = shl nsw <4 x i32> %102, <i32 1, i32 1, i32 1, i32 1>
  store <4 x i32> %103, <4 x i32>* %35, align 16, !tbaa !5
  %104 = load <4 x i32>, <4 x i32>* %37, align 16, !tbaa !5
  %105 = shl nsw <4 x i32> %104, <i32 1, i32 1, i32 1, i32 1>
  store <4 x i32> %105, <4 x i32>* %38, align 16, !tbaa !5
  %106 = load <4 x i32>, <4 x i32>* %40, align 16, !tbaa !5
  %107 = shl nsw <4 x i32> %106, <i32 1, i32 1, i32 1, i32 1>
  store <4 x i32> %107, <4 x i32>* %41, align 16, !tbaa !5
  %108 = load <4 x i32>, <4 x i32>* %43, align 16, !tbaa !5
  %109 = shl nsw <4 x i32> %108, <i32 1, i32 1, i32 1, i32 1>
  store <4 x i32> %109, <4 x i32>* %44, align 16, !tbaa !5
  %110 = load <4 x i32>, <4 x i32>* %46, align 16, !tbaa !5
  %111 = shl nsw <4 x i32> %110, <i32 1, i32 1, i32 1, i32 1>
  store <4 x i32> %111, <4 x i32>* %47, align 16, !tbaa !5
  %112 = load <4 x i32>, <4 x i32>* %49, align 16, !tbaa !5
  %113 = shl nsw <4 x i32> %112, <i32 1, i32 1, i32 1, i32 1>
  store <4 x i32> %113, <4 x i32>* %50, align 16, !tbaa !5
  %114 = load <4 x i32>, <4 x i32>* %52, align 16, !tbaa !5
  %115 = shl nsw <4 x i32> %114, <i32 1, i32 1, i32 1, i32 1>
  store <4 x i32> %115, <4 x i32>* %53, align 16, !tbaa !5
  %116 = load <4 x i32>, <4 x i32>* %55, align 16, !tbaa !5
  %117 = shl nsw <4 x i32> %116, <i32 1, i32 1, i32 1, i32 1>
  store <4 x i32> %117, <4 x i32>* %56, align 16, !tbaa !5
  %118 = load <4 x i32>, <4 x i32>* %58, align 16, !tbaa !5
  %119 = shl nsw <4 x i32> %118, <i32 1, i32 1, i32 1, i32 1>
  store <4 x i32> %119, <4 x i32>* %59, align 16, !tbaa !5
  %120 = load <4 x i32>, <4 x i32>* %61, align 16, !tbaa !5
  %121 = shl nsw <4 x i32> %120, <i32 1, i32 1, i32 1, i32 1>
  store <4 x i32> %121, <4 x i32>* %62, align 16, !tbaa !5
  %122 = load <4 x i32>, <4 x i32>* %64, align 16, !tbaa !5
  %123 = shl nsw <4 x i32> %122, <i32 1, i32 1, i32 1, i32 1>
  store <4 x i32> %123, <4 x i32>* %65, align 16, !tbaa !5
  %124 = load <4 x i32>, <4 x i32>* %67, align 16, !tbaa !5
  %125 = shl nsw <4 x i32> %124, <i32 1, i32 1, i32 1, i32 1>
  store <4 x i32> %125, <4 x i32>* %68, align 16, !tbaa !5
  %126 = load <4 x i32>, <4 x i32>* %70, align 16, !tbaa !5
  %127 = shl nsw <4 x i32> %126, <i32 1, i32 1, i32 1, i32 1>
  store <4 x i32> %127, <4 x i32>* %71, align 16, !tbaa !5
  %128 = load <4 x i32>, <4 x i32>* %73, align 16, !tbaa !5
  %129 = shl nsw <4 x i32> %128, <i32 1, i32 1, i32 1, i32 1>
  store <4 x i32> %129, <4 x i32>* %74, align 16, !tbaa !5
  %130 = load <4 x i32>, <4 x i32>* %76, align 16, !tbaa !5
  %131 = shl nsw <4 x i32> %130, <i32 1, i32 1, i32 1, i32 1>
  store <4 x i32> %131, <4 x i32>* %77, align 16, !tbaa !5
  %132 = load <4 x i32>, <4 x i32>* %79, align 16, !tbaa !5
  %133 = shl nsw <4 x i32> %132, <i32 1, i32 1, i32 1, i32 1>
  store <4 x i32> %133, <4 x i32>* %80, align 16, !tbaa !5
  %134 = load <4 x i32>, <4 x i32>* %82, align 16, !tbaa !5
  %135 = shl nsw <4 x i32> %134, <i32 1, i32 1, i32 1, i32 1>
  store <4 x i32> %135, <4 x i32>* %83, align 16, !tbaa !5
  br label %136

136:                                              ; preds = %188, %84
  %137 = phi i64 [ 0, %84 ], [ %189, %188 ]
  %138 = getelementptr inbounds [100 x i32], [100 x i32]* %2, i64 0, i64 %137
  %139 = load i32, i32* %138, align 8, !tbaa !5
  %140 = icmp sgt i32 %139, 9
  br i1 %140, label %141, label %147

141:                                              ; preds = %136
  %142 = add nsw i32 %139, -10
  store i32 %142, i32* %138, align 8, !tbaa !5
  %143 = add nsw i64 %137, -1
  %144 = getelementptr inbounds [100 x i32], [100 x i32]* %2, i64 0, i64 %143
  %145 = load i32, i32* %144, align 4, !tbaa !5
  %146 = add nsw i32 %145, 1
  store i32 %146, i32* %144, align 4, !tbaa !5
  br label %147

147:                                              ; preds = %136, %141
  %148 = or i64 %137, 1
  %149 = getelementptr inbounds [100 x i32], [100 x i32]* %2, i64 0, i64 %148
  %150 = load i32, i32* %149, align 4, !tbaa !5
  %151 = icmp sgt i32 %150, 9
  br i1 %151, label %183, label %188

152:                                              ; preds = %188
  %153 = add nuw i32 %85, 1
  %154 = icmp eq i32 %85, %7
  br i1 %154, label %155, label %84, !llvm.loop !9

155:                                              ; preds = %152, %0
  br label %156

156:                                              ; preds = %206, %155
  %157 = phi i64 [ 0, %155 ], [ %207, %206 ]
  %158 = getelementptr inbounds [100 x i32], [100 x i32]* %2, i64 0, i64 %157
  %159 = load i32, i32* %158, align 4, !tbaa !5
  %160 = icmp eq i32 %159, 0
  br i1 %160, label %177, label %161

161:                                              ; preds = %201, %196, %191, %177, %156
  %162 = phi i64 [ %157, %156 ], [ %178, %177 ], [ %192, %191 ], [ %197, %196 ], [ %202, %201 ]
  %163 = phi i32 [ %159, %156 ], [ %180, %177 ], [ %194, %191 ], [ %199, %196 ], [ %204, %201 ]
  %164 = trunc i64 %162 to i32
  %165 = icmp ult i32 %164, 100
  br i1 %165, label %166, label %182

166:                                              ; preds = %161
  %167 = call i32 (i8*, ...) @printf(i8* nonnull dereferenceable(1) getelementptr inbounds ([3 x i8], [3 x i8]* @.str, i64 0, i64 0), i32 %163)
  %168 = add nuw nsw i64 %162, 1
  %169 = icmp eq i64 %168, 100
  br i1 %169, label %182, label %170, !llvm.loop !11

170:                                              ; preds = %166, %170
  %171 = phi i64 [ %175, %170 ], [ %168, %166 ]
  %172 = getelementptr inbounds [100 x i32], [100 x i32]* %2, i64 0, i64 %171
  %173 = load i32, i32* %172, align 4, !tbaa !5
  %174 = call i32 (i8*, ...) @printf(i8* nonnull dereferenceable(1) getelementptr inbounds ([3 x i8], [3 x i8]* @.str, i64 0, i64 0), i32 %173)
  %175 = add nuw nsw i64 %171, 1
  %176 = icmp eq i64 %175, 100
  br i1 %176, label %182, label %170, !llvm.loop !11

177:                                              ; preds = %156
  %178 = add nuw nsw i64 %157, 1
  %179 = getelementptr inbounds [100 x i32], [100 x i32]* %2, i64 0, i64 %178
  %180 = load i32, i32* %179, align 4, !tbaa !5
  %181 = icmp eq i32 %180, 0
  br i1 %181, label %191, label %161

182:                                              ; preds = %206, %170, %166, %161
  call void @llvm.lifetime.end.p0i8(i64 400, i8* nonnull %3) #4
  call void @llvm.lifetime.end.p0i8(i64 4, i8* nonnull %4) #4
  ret i32 0

183:                                              ; preds = %147
  %184 = add nsw i32 %150, -10
  store i32 %184, i32* %149, align 4, !tbaa !5
  %185 = getelementptr inbounds [100 x i32], [100 x i32]* %2, i64 0, i64 %137
  %186 = load i32, i32* %185, align 8, !tbaa !5
  %187 = add nsw i32 %186, 1
  store i32 %187, i32* %185, align 8, !tbaa !5
  br label %188

188:                                              ; preds = %183, %147
  %189 = add nuw nsw i64 %137, 2
  %190 = icmp eq i64 %189, 100
  br i1 %190, label %152, label %136, !llvm.loop !12

191:                                              ; preds = %177
  %192 = add nuw nsw i64 %157, 2
  %193 = getelementptr inbounds [100 x i32], [100 x i32]* %2, i64 0, i64 %192
  %194 = load i32, i32* %193, align 4, !tbaa !5
  %195 = icmp eq i32 %194, 0
  br i1 %195, label %196, label %161

196:                                              ; preds = %191
  %197 = add nuw nsw i64 %157, 3
  %198 = getelementptr inbounds [100 x i32], [100 x i32]* %2, i64 0, i64 %197
  %199 = load i32, i32* %198, align 4, !tbaa !5
  %200 = icmp eq i32 %199, 0
  br i1 %200, label %201, label %161

201:                                              ; preds = %196
  %202 = add nuw nsw i64 %157, 4
  %203 = getelementptr inbounds [100 x i32], [100 x i32]* %2, i64 0, i64 %202
  %204 = load i32, i32* %203, align 4, !tbaa !5
  %205 = icmp eq i32 %204, 0
  br i1 %205, label %206, label %161

206:                                              ; preds = %201
  %207 = add nuw nsw i64 %157, 5
  %208 = icmp eq i64 %207, 100
  br i1 %208, label %182, label %156, !llvm.loop !13
}

; Function Attrs: argmemonly mustprogress nofree nosync nounwind willreturn
declare void @llvm.lifetime.start.p0i8(i64 immarg, i8* nocapture) #1

; Function Attrs: nofree nounwind
declare noundef i32 @__isoc99_scanf(i8* nocapture noundef readonly, ...) local_unnamed_addr #2

; Function Attrs: nofree nounwind
declare noundef i32 @printf(i8* nocapture noundef readonly, ...) local_unnamed_addr #2

; Function Attrs: argmemonly mustprogress nofree nosync nounwind willreturn
declare void @llvm.lifetime.end.p0i8(i64 immarg, i8* nocapture) #1

; Function Attrs: argmemonly nofree nounwind willreturn writeonly
declare void @llvm.memset.p0i8.i64(i8* nocapture writeonly, i8, i64, i1 immarg) #3


!llvm.module.flags = !{!0, !1, !2, !3}
!llvm.ident = !{!4}

!0 = !{i32 1, !"wchar_size", i32 4}
!1 = !{i32 7, !"PIC Level", i32 2}
!2 = !{i32 7, !"PIE Level", i32 2}
!3 = !{i32 7, !"uwtable", i32 1}
!4 = !{!"clang version 13.0.0"}
!5 = !{!6, !6, i64 0}
!6 = !{!"int", !7, i64 0}
!7 = !{!"omnipotent char", !8, i64 0}
!8 = !{!"Simple C/C++ TBAA"}
!9 = distinct !{!9, !10}
!10 = !{!"llvm.loop.mustprogress"}
!11 = distinct !{!11, !10}
!12 = distinct !{!12, !10}
!13 = distinct !{!13, !10}
